; Function Attrs: nounwind uwtable
define hidden void @zif_date_parse(ptr noundef %0, ptr noundef %1) #0 {
  %3 = alloca ptr, align 8
  %4 = alloca ptr, align 8
  %5 = getelementptr inbounds i8, ptr %0, i64 44
  %6 = load i32, ptr %5, align 4
  %cond = icmp eq i32 %6, 1
  br i1 %cond, label %8, label %7

7:                                                ; preds = %2
  tail call void @zend_wrong_parameters_count_error(i32 noundef 1, i32 noundef 1) #25
  br label %.thread86

8:                                                ; preds = %2
  %9 = getelementptr inbounds i8, ptr %0, i64 80
  %10 = getelementptr inbounds i8, ptr %0, i64 88
  %11 = load i8, ptr %10, align 8
  %12 = icmp eq i8 %11, 6
  br i1 %12, label %.thread75, label %14

.thread75:                                        ; preds = %8
  %13 = load ptr, ptr %9, align 8
  store ptr %13, ptr %3, align 8
  br label %.thread79

14:                                               ; preds = %8
  %15 = call zeroext i1 @zend_parse_arg_str_slow(ptr noundef nonnull %9, ptr noundef nonnull %3, i32 noundef 1) #25
  %.fr = freeze i1 %15
  br i1 %.fr, label %..thread79_crit_edge, label %.thread86

..thread79_crit_edge:                             ; preds = %14
  %.pre = load ptr, ptr %3, align 8
  br label %.thread79

.thread86:                                        ; preds = %14, %7
  %.095 = phi i32 [ 1, %7 ], [ 9, %14 ]
  %.05494 = phi i32 [ 0, %7 ], [ 1, %14 ]
  %.05593 = phi i32 [ 0, %7 ], [ 4, %14 ]
  %.05692 = phi ptr [ null, %7 ], [ %9, %14 ]
  call void @zend_wrong_parameter_error(i32 noundef %.095, i32 noundef %.05494, ptr noundef null, i32 noundef %.05593, ptr noundef %.05692) #25
  br label %27

.thread79:                                        ; preds = %..thread79_crit_edge, %.thread75
  %16 = phi ptr [ %.pre, %..thread79_crit_edge ], [ %13, %.thread75 ]
  %17 = getelementptr inbounds i8, ptr %16, i64 24
  %18 = getelementptr inbounds i8, ptr %16, i64 16
  %19 = load i64, ptr %18, align 8
  %20 = load ptr, ptr @php_date_global_timezone_db, align 8
  %.not61 = icmp eq ptr %20, null
  br i1 %.not61, label %21, label %23

21:                                               ; preds = %.thread79
  %22 = call ptr @timelib_builtin_db() #25
  br label %23

23:                                               ; preds = %.thread79, %21
  %24 = phi ptr [ %22, %21 ], [ %20, %.thread79 ]
  %25 = call ptr @timelib_strtotime(ptr noundef nonnull %17, i64 noundef %19, ptr noundef nonnull %4, ptr noundef %24, ptr noundef nonnull @php_date_parse_tzfile_wrapper) #25
  %26 = load ptr, ptr %4, align 8
  call fastcc void @php_date_do_return_parsed_time(ptr noundef %1, ptr noundef %25, ptr noundef %26)
  br label %27

27:                                               ; preds = %23, %.thread86
  ret void
}